target datalayout = "e-m:e-p270:32:32-p271:32:32-p272:64:64-i64:64-i128:128-f80:128-n8:16:32:64-S128"
target triple = "x86_64-pc-linux-gnu"

%struct._object = type { %union.anon, ptr }
%union.anon = type { i64 }
%struct.PyVarObject = type { %struct._object, i64 }
%struct._typeobject = type { %struct.PyVarObject, ptr, i64, i64, ptr, i64, ptr, ptr, ptr, ptr, ptr, ptr, ptr, ptr, ptr, ptr, ptr, ptr, ptr, i64, ptr, ptr, ptr, ptr, i64, ptr, ptr, ptr, ptr, ptr, ptr, ptr, ptr, ptr, i64, ptr, ptr, ptr, ptr, ptr, ptr, ptr, ptr, ptr, ptr, ptr, i32, ptr, ptr, i8, i16 }

@.str.38 = private unnamed_addr constant [15 x i8] c"register_error\00", align 1
@_Py_NoneStruct = external global %struct._object, align 8
@.str.43 = private unnamed_addr constant [4 x i8] c"str\00", align 1
@PyExc_ValueError = external global ptr, align 8
@.str.44 = private unnamed_addr constant [24 x i8] c"embedded null character\00", align 1
@.str.50 = private unnamed_addr constant [11 x i8] c"argument 1\00", align 1

; Function Attrs: nounwind uwtable
define internal ptr @_codecs_register_error_impl(ptr noundef %0, ptr noundef %1, ptr noundef %2) #0 {
  %4 = alloca ptr, align 8
  %5 = alloca ptr, align 8
  %6 = alloca ptr, align 8
  %7 = alloca ptr, align 8
  store ptr %0, ptr %5, align 8, !tbaa !4
  store ptr %1, ptr %6, align 8, !tbaa !9
  store ptr %2, ptr %7, align 8, !tbaa !4
  %8 = load ptr, ptr %6, align 8, !tbaa !9
  %9 = load ptr, ptr %7, align 8, !tbaa !4
  %10 = call i32 @PyCodec_RegisterError(ptr noundef %8, ptr noundef %9)
  %11 = icmp ne i32 %10, 0
  br i1 %11, label %12, label %13

12:                                               ; preds = %3
  store ptr null, ptr %4, align 8
  br label %14

13:                                               ; preds = %3
  store ptr @_Py_NoneStruct, ptr %4, align 8
  br label %14

14:                                               ; preds = %13, %12
  %15 = load ptr, ptr %4, align 8
  ret ptr %15
}

; Function Attrs: inlinehint nounwind uwtable
define internal i32 @PyType_HasFeature(ptr noundef %0, i64 noundef %1) #3 {
  %3 = alloca ptr, align 8
  %4 = alloca i64, align 8
  %5 = alloca i64, align 8
  store ptr %0, ptr %3, align 8, !tbaa !20
  store i64 %1, ptr %4, align 8, !tbaa !11
  call void @llvm.lifetime.start.p0(i64 8, ptr %5) #6
  %6 = load ptr, ptr %3, align 8, !tbaa !20
  %7 = getelementptr inbounds nuw %struct._typeobject, ptr %6, i32 0, i32 19
  %8 = load i64, ptr %7, align 8, !tbaa !22
  store i64 %8, ptr %5, align 8, !tbaa !11
  %9 = load i64, ptr %5, align 8, !tbaa !11
  %10 = load i64, ptr %4, align 8, !tbaa !11
  %11 = and i64 %9, %10
  %12 = icmp ne i64 %11, 0
  %13 = zext i1 %12 to i32
  call void @llvm.lifetime.end.p0(i64 8, ptr %5) #6
  ret i32 %13
}

; Function Attrs: inlinehint nounwind uwtable
define internal ptr @_Py_TYPE(ptr noundef %0) #3 {
  %2 = alloca ptr, align 8
  store ptr %0, ptr %2, align 8, !tbaa !4
  %3 = load ptr, ptr %2, align 8, !tbaa !4
  %4 = getelementptr inbounds nuw %struct._object, ptr %3, i32 0, i32 1
  %5 = load ptr, ptr %4, align 8, !tbaa !30
  ret ptr %5
}

; Function Attrs: nounwind uwtable
define internal ptr @_codecs_register_error(ptr noundef %0, ptr noundef %1, i64 noundef %2) #0 {
  %4 = alloca ptr, align 8
  %5 = alloca ptr, align 8
  %6 = alloca i64, align 8
  %7 = alloca ptr, align 8
  %8 = alloca ptr, align 8
  %9 = alloca ptr, align 8
  %10 = alloca i64, align 8
  store ptr %0, ptr %4, align 8, !tbaa !4
  store ptr %1, ptr %5, align 8, !tbaa !13
  store i64 %2, ptr %6, align 8, !tbaa !11
  call void @llvm.lifetime.start.p0(i64 8, ptr %7) #6
  store ptr null, ptr %7, align 8, !tbaa !4
  call void @llvm.lifetime.start.p0(i64 8, ptr %8) #6
  call void @llvm.lifetime.start.p0(i64 8, ptr %9) #6
  %11 = load i64, ptr %6, align 8, !tbaa !11
  %12 = icmp sle i64 2, %11
  br i1 %12, label %13, label %16

13:                                               ; preds = %3
  %14 = load i64, ptr %6, align 8, !tbaa !11
  %15 = icmp sle i64 %14, 2
  br i1 %15, label %21, label %16

16:                                               ; preds = %13, %3
  %17 = load i64, ptr %6, align 8, !tbaa !11
  %18 = call i32 @_PyArg_CheckPositional(ptr noundef @.str.38, i64 noundef %17, i64 noundef 2, i64 noundef 2)
  %19 = icmp ne i32 %18, 0
  br i1 %19, label %21, label %20

20:                                               ; preds = %16
  br label %55

21:                                               ; preds = %16, %13
  %22 = load ptr, ptr %5, align 8, !tbaa !13
  %23 = getelementptr ptr, ptr %22, i64 0
  %24 = load ptr, ptr %23, align 8, !tbaa !4
  %25 = call ptr @_Py_TYPE(ptr noundef %24)
  %26 = call i32 @PyType_HasFeature(ptr noundef %25, i64 noundef 268435456)
  %27 = icmp ne i32 %26, 0
  br i1 %27, label %32, label %28

28:                                               ; preds = %21
  %29 = load ptr, ptr %5, align 8, !tbaa !13
  %30 = getelementptr ptr, ptr %29, i64 0
  %31 = load ptr, ptr %30, align 8, !tbaa !4
  call void @_PyArg_BadArgument(ptr noundef @.str.38, ptr noundef @.str.50, ptr noundef @.str.43, ptr noundef %31)
  br label %55

32:                                               ; preds = %21
  %33 = load ptr, ptr %5, align 8, !tbaa !13
  %34 = getelementptr ptr, ptr %33, i64 0
  %35 = load ptr, ptr %34, align 8, !tbaa !4
  %36 = call ptr @PyUnicode_AsUTF8AndSize(ptr noundef %35, ptr noundef %10)
  store ptr %36, ptr %8, align 8, !tbaa !9
  %37 = load ptr, ptr %8, align 8, !tbaa !9
  %38 = icmp eq ptr %37, null
  br i1 %38, label %39, label %40

39:                                               ; preds = %32
  br label %55

40:                                               ; preds = %32
  %41 = load ptr, ptr %8, align 8, !tbaa !9
  %42 = call i64 @strlen(ptr noundef %41) #7
  %43 = load i64, ptr %10, align 8, !tbaa !11
  %44 = icmp ne i64 %42, %43
  br i1 %44, label %45, label %47

45:                                               ; preds = %40
  %46 = load ptr, ptr @PyExc_ValueError, align 8, !tbaa !4
  call void @PyErr_SetString(ptr noundef %46, ptr noundef @.str.44)
  br label %55

47:                                               ; preds = %40
  %48 = load ptr, ptr %5, align 8, !tbaa !13
  %49 = getelementptr ptr, ptr %48, i64 1
  %50 = load ptr, ptr %49, align 8, !tbaa !4
  store ptr %50, ptr %9, align 8, !tbaa !4
  %51 = load ptr, ptr %4, align 8, !tbaa !4
  %52 = load ptr, ptr %8, align 8, !tbaa !9
  %53 = load ptr, ptr %9, align 8, !tbaa !4
  %54 = call ptr @_codecs_register_error_impl(ptr noundef %51, ptr noundef %52, ptr noundef %53)
  store ptr %54, ptr %7, align 8, !tbaa !4
  br label %55

55:                                               ; preds = %47, %45, %39, %28, %20
  %56 = load ptr, ptr %7, align 8, !tbaa !4
  call void @llvm.lifetime.end.p0(i64 8, ptr %9) #6
  call void @llvm.lifetime.end.p0(i64 8, ptr %8) #6
  call void @llvm.lifetime.end.p0(i64 8, ptr %7) #6
  ret ptr %56
}