; Function Attrs: nounwind uwtable
define internal ptr @_codecs_register_error(ptr readnone captures(none) %0, ptr noundef readonly captures(none) %1, i64 noundef %2) #0 {
  %4 = alloca i64, align 8
  %or.cond = icmp eq i64 %2, 2
  br i1 %or.cond, label %7, label %5

5:                                                ; preds = %3
  %6 = tail call i32 @_PyArg_CheckPositional(ptr noundef nonnull @.str.38, i64 noundef %2, i64 noundef 2, i64 noundef 2) #5
  %.not = icmp eq i32 %6, 0
  br i1 %.not, label %25, label %7

7:                                                ; preds = %3, %5
  %8 = load ptr, ptr %1, align 8, !tbaa !22
  %9 = getelementptr i8, ptr %8, i64 8
  %.val = load ptr, ptr %9, align 8, !tbaa !4
  %10 = getelementptr i8, ptr %.val, i64 168
  %.val16 = load i64, ptr %10, align 8, !tbaa !10
  %11 = and i64 %.val16, 268435456
  %.not14 = icmp eq i64 %11, 0
  br i1 %.not14, label %12, label %13

12:                                               ; preds = %7
  tail call void @_PyArg_BadArgument(ptr noundef nonnull @.str.38, ptr noundef nonnull @.str.50, ptr noundef nonnull @.str.43, ptr noundef nonnull %8) #5
  br label %25

13:                                               ; preds = %7
  %14 = call ptr @PyUnicode_AsUTF8AndSize(ptr noundef nonnull %8, ptr noundef nonnull %4) #5
  %15 = icmp eq ptr %14, null
  br i1 %15, label %25, label %16

16:                                               ; preds = %13
  %17 = call i64 @strlen(ptr noundef nonnull dereferenceable(1) %14) #6
  %18 = load i64, ptr %4, align 8, !tbaa !21
  %.not15 = icmp eq i64 %17, %18
  br i1 %.not15, label %21, label %19

19:                                               ; preds = %16
  %20 = load ptr, ptr @PyExc_ValueError, align 8, !tbaa !22
  call void @PyErr_SetString(ptr noundef %20, ptr noundef nonnull @.str.44) #5
  br label %25

21:                                               ; preds = %16
  %22 = getelementptr i8, ptr %1, i64 8
  %23 = load ptr, ptr %22, align 8, !tbaa !22
  %24 = call i32 @PyCodec_RegisterError(ptr noundef nonnull %14, ptr noundef %23) #5
  %.not.i = icmp eq i32 %24, 0
  %_Py_NoneStruct..i = select i1 %.not.i, ptr @_Py_NoneStruct, ptr null
  br label %25

25:                                               ; preds = %13, %5, %21, %19, %12
  %.0 = phi ptr [ null, %13 ], [ null, %19 ], [ %_Py_NoneStruct..i, %21 ], [ null, %12 ], [ null, %5 ]
  ret ptr %.0
}